target datalayout = "e-m:e-p270:32:32-p271:32:32-p272:64:64-i64:64-i128:128-f80:128-n8:16:32:64-S128"
target triple = "x86_64-unknown-linux-gnu"

%"class.rocksdb::lru_cache::LRUHandleTable" = type { i32, %"class.std::unique_ptr", i32, i32, ptr }
%"class.std::unique_ptr" = type { %"struct.std::__uniq_ptr_data" }
%"struct.std::__uniq_ptr_data" = type { %"class.std::__uniq_ptr_impl" }
%"class.std::__uniq_ptr_impl" = type { %"class.std::tuple" }
%"class.std::tuple" = type { %"struct.std::_Tuple_impl" }
%"struct.std::_Tuple_impl" = type { %"struct.std::_Head_base.1" }
%"struct.std::_Head_base.1" = type { ptr }
%"struct.rocksdb::lru_cache::LRUHandle" = type { ptr, ptr, ptr, ptr, ptr, i64, i64, i32, i32, i8, i8, [1 x i8] }
%"class.rocksdb::lru_cache::LRUCacheShard" = type { %"class.rocksdb::CacheShardBase", i64, i64, i64, i8, double, double, double, double, %"struct.rocksdb::lru_cache::LRUHandle", ptr, ptr, %"class.rocksdb::lru_cache::LRUHandleTable", i64, i64, %"class.rocksdb::port::Mutex", ptr }
%"class.rocksdb::CacheShardBase" = type { i32 }
%"class.rocksdb::port::Mutex" = type { %union.pthread_mutex_t }
%union.pthread_mutex_t = type { %struct.__pthread_mutex_s }
%struct.__pthread_mutex_s = type { i32, i32, i32, i32, i32, i16, i16, %struct.__pthread_internal_list }
%struct.__pthread_internal_list = type { ptr, ptr }
%"class.std::_Function_base" = type { %"union.std::_Any_data", ptr }
%"union.std::_Any_data" = type { %"union.std::_Nocopy_types" }
%"union.std::_Nocopy_types" = type { { i64, i64 } }
%"class.std::function" = type { %"class.std::_Function_base", ptr }
%"class.rocksdb::ShardedCache" = type <{ %"class.rocksdb::ShardedCacheBase", ptr, i8, [7 x i8] }>
%"class.rocksdb::ShardedCacheBase" = type { %"class.rocksdb::Cache", %"struct.std::atomic", i32, i32, i8, i64, %"class.rocksdb::port::Mutex" }
%"class.rocksdb::Cache" = type { ptr, %"class.std::shared_ptr", %"class.std::function" }
%"class.std::shared_ptr" = type { %"class.std::__shared_ptr" }
%"class.std::__shared_ptr" = type { ptr, %"class.std::__shared_count" }
%"class.std::__shared_count" = type { ptr }
%"struct.std::atomic" = type { %"struct.std::__atomic_base" }
%"struct.std::__atomic_base" = type { i64 }
%"class.std::function.23" = type { %"class.std::_Function_base", ptr }
%class.anon.26 = type { i8 }

; Function Attrs: mustprogress nounwind uwtable
define linkonce_odr noundef ptr @_ZNSt9_Any_data9_M_accessEv(ptr noundef nonnull align 8 dereferenceable(16) %this) #4 comdat align 2 {
entry:
  %this.addr = alloca ptr, align 8
  store ptr %this, ptr %this.addr, align 8
  %this1 = load ptr, ptr %this.addr, align 8
  %arrayidx = getelementptr inbounds [16 x i8], ptr %this1, i64 0, i64 0
  ret ptr %arrayidx
}

; Function Attrs: mustprogress nounwind uwtable
define linkonce_odr noundef zeroext i1 @_ZNKSt14_Function_base8_M_emptyEv(ptr noundef nonnull align 8 dereferenceable(24) %this) #4 comdat align 2 {
entry:
  %this.addr = alloca ptr, align 8
  store ptr %this, ptr %this.addr, align 8
  %this1 = load ptr, ptr %this.addr, align 8
  %_M_manager = getelementptr inbounds %"class.std::_Function_base", ptr %this1, i32 0, i32 1
  %0 = load ptr, ptr %_M_manager, align 8
  %tobool = icmp ne ptr %0, null
  %lnot = xor i1 %tobool, true
  ret i1 %lnot
}

; Function Attrs: mustprogress nounwind uwtable
define internal void @"_ZNSt14_Function_base13_Base_managerIZN7rocksdb9lru_cache8LRUCache15TEST_GetLRUSizeEvE3$_0E9_M_createIS4_EEvRSt9_Any_dataOT_St17integral_constantIbLb1EE"(ptr noundef nonnull align 8 dereferenceable(16) %__dest, ptr noundef nonnull align 1 dereferenceable(1) %__f) #4 align 2 {
entry:
  %__dest.addr = alloca ptr, align 8
  %__f.addr = alloca ptr, align 8
  store ptr %__dest, ptr %__dest.addr, align 8
  store ptr %__f, ptr %__f.addr, align 8
  %0 = load ptr, ptr %__dest.addr, align 8
  %call = call noundef ptr @_ZNSt9_Any_data9_M_accessEv(ptr noundef nonnull align 8 dereferenceable(16) %0) #15
  ret void
}

; Function Attrs: mustprogress nounwind uwtable
define linkonce_odr void @_ZNSt14_Function_baseD2Ev(ptr noundef nonnull align 8 dereferenceable(24) %this) unnamed_addr #4 comdat align 2 personality ptr @__gxx_personality_v0 {
entry:
  %this.addr = alloca ptr, align 8
  store ptr %this, ptr %this.addr, align 8
  %this1 = load ptr, ptr %this.addr, align 8
  %_M_manager = getelementptr inbounds %"class.std::_Function_base", ptr %this1, i32 0, i32 1
  %0 = load ptr, ptr %_M_manager, align 8
  %tobool = icmp ne ptr %0, null
  br i1 %tobool, label %if.then, label %if.end

if.then:                                          ; preds = %entry
  %_M_manager2 = getelementptr inbounds %"class.std::_Function_base", ptr %this1, i32 0, i32 1
  %1 = load ptr, ptr %_M_manager2, align 8
  %_M_functor = getelementptr inbounds %"class.std::_Function_base", ptr %this1, i32 0, i32 0
  %_M_functor3 = getelementptr inbounds %"class.std::_Function_base", ptr %this1, i32 0, i32 0
  %call = invoke noundef zeroext i1 %1(ptr noundef nonnull align 8 dereferenceable(16) %_M_functor, ptr noundef nonnull align 8 dereferenceable(16) %_M_functor3, i32 noundef 3)
          to label %invoke.cont unwind label %terminate.lpad

invoke.cont:                                      ; preds = %if.then
  br label %if.end

if.end:                                           ; preds = %invoke.cont, %entry
  ret void

terminate.lpad:                                   ; preds = %if.then
  %2 = landingpad { ptr, i32 }
          catch ptr null
  %3 = extractvalue { ptr, i32 } %2, 0
  call void @__clang_call_terminate(ptr %3) #16
  unreachable
}

; Function Attrs: mustprogress uwtable
define linkonce_odr noundef i64 @_ZNKSt8functionIFmRN7rocksdb9lru_cache13LRUCacheShardEEEclES3_(ptr noundef nonnull align 8 dereferenceable(32) %this, ptr noundef nonnull align 64 dereferenceable(256) %__args) #0 comdat align 2 {
entry:
  %this.addr = alloca ptr, align 8
  %__args.addr = alloca ptr, align 8
  store ptr %this, ptr %this.addr, align 8
  store ptr %__args, ptr %__args.addr, align 8
  %this1 = load ptr, ptr %this.addr, align 8
  %call = call noundef zeroext i1 @_ZNKSt14_Function_base8_M_emptyEv(ptr noundef nonnull align 8 dereferenceable(24) %this1)
  br i1 %call, label %if.then, label %if.end

if.then:                                          ; preds = %entry
  call void @_ZSt25__throw_bad_function_callv() #17
  unreachable

if.end:                                           ; preds = %entry
  %_M_invoker = getelementptr inbounds %"class.std::function.23", ptr %this1, i32 0, i32 1
  %0 = load ptr, ptr %_M_invoker, align 8
  %_M_functor = getelementptr inbounds %"class.std::_Function_base", ptr %this1, i32 0, i32 0
  %1 = load ptr, ptr %__args.addr, align 8
  %call2 = call noundef i64 %0(ptr noundef nonnull align 8 dereferenceable(16) %_M_functor, ptr noundef nonnull align 64 dereferenceable(256) %1)
  ret i64 %call2
}

; Function Attrs: mustprogress nounwind uwtable
define internal void @"_ZNSt14_Function_base13_Base_managerIZN7rocksdb9lru_cache8LRUCache15TEST_GetLRUSizeEvE3$_0E15_M_init_functorIS4_EEvRSt9_Any_dataOT_"(ptr noundef nonnull align 8 dereferenceable(16) %__functor, ptr noundef nonnull align 1 dereferenceable(1) %__f) #4 align 2 personality ptr @__gxx_personality_v0 {
entry:
  %__functor.addr = alloca ptr, align 8
  %__f.addr = alloca ptr, align 8
  store ptr %__functor, ptr %__functor.addr, align 8
  store ptr %__f, ptr %__f.addr, align 8
  %0 = load ptr, ptr %__functor.addr, align 8
  %1 = load ptr, ptr %__f.addr, align 8
  invoke void @"_ZNSt14_Function_base13_Base_managerIZN7rocksdb9lru_cache8LRUCache15TEST_GetLRUSizeEvE3$_0E9_M_createIS4_EEvRSt9_Any_dataOT_St17integral_constantIbLb1EE"(ptr noundef nonnull align 8 dereferenceable(16) %0, ptr noundef nonnull align 1 dereferenceable(1) %1)
          to label %invoke.cont unwind label %terminate.lpad

invoke.cont:                                      ; preds = %entry
  ret void

terminate.lpad:                                   ; preds = %entry
  %2 = landingpad { ptr, i32 }
          catch ptr null
  %3 = extractvalue { ptr, i32 } %2, 0
  call void @__clang_call_terminate(ptr %3) #16
  unreachable
}

; Function Attrs: mustprogress nounwind uwtable
define internal noundef zeroext i1 @"_ZNSt14_Function_base13_Base_managerIZN7rocksdb9lru_cache8LRUCache15TEST_GetLRUSizeEvE3$_0E21_M_not_empty_functionIS4_EEbRKT_"(ptr noundef nonnull align 1 dereferenceable(1) %0) #4 align 2 {
entry:
  %.addr = alloca ptr, align 8
  store ptr %0, ptr %.addr, align 8
  ret i1 true
}

; Function Attrs: mustprogress nounwind uwtable
define linkonce_odr void @_ZNSt14_Function_baseC2Ev(ptr noundef nonnull align 8 dereferenceable(24) %this) unnamed_addr #4 comdat align 2 {
entry:
  %this.addr = alloca ptr, align 8
  store ptr %this, ptr %this.addr, align 8
  %this1 = load ptr, ptr %this.addr, align 8
  %_M_functor = getelementptr inbounds %"class.std::_Function_base", ptr %this1, i32 0, i32 0
  store ptr null, ptr %_M_functor, align 8
  %_M_manager = getelementptr inbounds %"class.std::_Function_base", ptr %this1, i32 0, i32 1
  store ptr null, ptr %_M_manager, align 8
  ret void
}

; Function Attrs: mustprogress nounwind uwtable
define linkonce_odr void @_ZNSt8functionIFmRN7rocksdb9lru_cache13LRUCacheShardEEED2Ev(ptr noundef nonnull align 8 dereferenceable(32) %this) unnamed_addr #4 comdat align 2 {
entry:
  %this.addr = alloca ptr, align 8
  store ptr %this, ptr %this.addr, align 8
  %this1 = load ptr, ptr %this.addr, align 8
  call void @_ZNSt14_Function_baseD2Ev(ptr noundef nonnull align 8 dereferenceable(24) %this1) #15
  ret void
}

; Function Attrs: mustprogress uwtable
define linkonce_odr noundef i64 @_ZNK7rocksdb12ShardedCacheINS_9lru_cache13LRUCacheShardEE13SumOverShardsERKSt8functionIFmRS2_EE(ptr noundef nonnull align 8 dereferenceable(137) %this, ptr noundef nonnull align 8 dereferenceable(32) %fn) #0 comdat align 2 {
entry:
  %this.addr = alloca ptr, align 8
  %fn.addr = alloca ptr, align 8
  %num_shards = alloca i32, align 4
  %result = alloca i64, align 8
  %i = alloca i32, align 4
  store ptr %this, ptr %this.addr, align 8
  store ptr %fn, ptr %fn.addr, align 8
  %this1 = load ptr, ptr %this.addr, align 8
  %call = call noundef i32 @_ZNK7rocksdb16ShardedCacheBase12GetNumShardsEv(ptr noundef nonnull align 8 dereferenceable(128) %this1)
  store i32 %call, ptr %num_shards, align 4
  store i64 0, ptr %result, align 8
  store i32 0, ptr %i, align 4
  br label %for.cond

for.cond:                                         ; preds = %for.inc, %entry
  %0 = load i32, ptr %i, align 4
  %1 = load i32, ptr %num_shards, align 4
  %cmp = icmp ult i32 %0, %1
  br i1 %cmp, label %for.body, label %for.end

for.body:                                         ; preds = %for.cond
  %2 = load ptr, ptr %fn.addr, align 8
  %shards_ = getelementptr inbounds %"class.rocksdb::ShardedCache", ptr %this1, i32 0, i32 1
  %3 = load ptr, ptr %shards_, align 8
  %4 = load i32, ptr %i, align 4
  %idxprom = zext i32 %4 to i64
  %arrayidx = getelementptr inbounds %"class.rocksdb::lru_cache::LRUCacheShard", ptr %3, i64 %idxprom
  %call2 = call noundef i64 @_ZNKSt8functionIFmRN7rocksdb9lru_cache13LRUCacheShardEEEclES3_(ptr noundef nonnull align 8 dereferenceable(32) %2, ptr noundef nonnull align 64 dereferenceable(256) %arrayidx)
  %5 = load i64, ptr %result, align 8
  %add = add i64 %5, %call2
  store i64 %add, ptr %result, align 8
  br label %for.inc

for.inc:                                          ; preds = %for.body
  %6 = load i32, ptr %i, align 4
  %inc = add i32 %6, 1
  store i32 %inc, ptr %i, align 4
  br label %for.cond, !llvm.loop !17

for.end:                                          ; preds = %for.cond
  %7 = load i64, ptr %result, align 8
  ret i64 %7
}

; Function Attrs: mustprogress nounwind uwtable
define internal void @"_ZNSt8functionIFmRN7rocksdb9lru_cache13LRUCacheShardEEEC2IZNS1_8LRUCache15TEST_GetLRUSizeEvE3$_0vEEOT_"(ptr noundef nonnull align 8 dereferenceable(32) %this, ptr noundef nonnull align 1 dereferenceable(1) %__f) unnamed_addr #4 align 2 {
entry:
  %this.addr = alloca ptr, align 8
  %__f.addr = alloca ptr, align 8
  store ptr %this, ptr %this.addr, align 8
  store ptr %__f, ptr %__f.addr, align 8
  %this1 = load ptr, ptr %this.addr, align 8
  %0 = getelementptr inbounds i8, ptr %this1, i64 0
  call void @llvm.memset.p0.i64(ptr align 8 %0, i8 0, i64 24, i1 false)
  call void @_ZNSt14_Function_baseC2Ev(ptr noundef nonnull align 8 dereferenceable(24) %this1) #15
  %_M_invoker = getelementptr inbounds %"class.std::function.23", ptr %this1, i32 0, i32 1
  store ptr null, ptr %_M_invoker, align 8
  %1 = load ptr, ptr %__f.addr, align 8
  %call = call noundef zeroext i1 @"_ZNSt14_Function_base13_Base_managerIZN7rocksdb9lru_cache8LRUCache15TEST_GetLRUSizeEvE3$_0E21_M_not_empty_functionIS4_EEbRKT_"(ptr noundef nonnull align 1 dereferenceable(1) %1) #15
  br i1 %call, label %if.then, label %if.end

if.then:                                          ; preds = %entry
  %_M_functor = getelementptr inbounds %"class.std::_Function_base", ptr %this1, i32 0, i32 0
  %2 = load ptr, ptr %__f.addr, align 8
  call void @"_ZNSt14_Function_base13_Base_managerIZN7rocksdb9lru_cache8LRUCache15TEST_GetLRUSizeEvE3$_0E15_M_init_functorIS4_EEvRSt9_Any_dataOT_"(ptr noundef nonnull align 8 dereferenceable(16) %_M_functor, ptr noundef nonnull align 1 dereferenceable(1) %2) #15
  %_M_invoker2 = getelementptr inbounds %"class.std::function.23", ptr %this1, i32 0, i32 1
  store ptr @"_ZNSt17_Function_handlerIFmRN7rocksdb9lru_cache13LRUCacheShardEEZNS1_8LRUCache15TEST_GetLRUSizeEvE3$_0E9_M_invokeERKSt9_Any_dataS3_", ptr %_M_invoker2, align 8
  %_M_manager = getelementptr inbounds %"class.std::_Function_base", ptr %this1, i32 0, i32 1
  store ptr @"_ZNSt17_Function_handlerIFmRN7rocksdb9lru_cache13LRUCacheShardEEZNS1_8LRUCache15TEST_GetLRUSizeEvE3$_0E10_M_managerERSt9_Any_dataRKS8_St18_Manager_operation", ptr %_M_manager, align 8
  br label %if.end

if.end:                                           ; preds = %if.then, %entry
  ret void
}

; Function Attrs: mustprogress uwtable
define noundef i64 @_ZN7rocksdb9lru_cache8LRUCache15TEST_GetLRUSizeEv(ptr noundef nonnull align 8 dereferenceable(144) %this) #0 align 2 personality ptr @__gxx_personality_v0 {
entry:
  %this.addr = alloca ptr, align 8
  %ref.tmp = alloca %"class.std::function.23", align 8
  %ref.tmp2 = alloca %class.anon.26, align 1
  %exn.slot = alloca ptr, align 8
  %ehselector.slot = alloca i32, align 4
  store ptr %this, ptr %this.addr, align 8
  %this1 = load ptr, ptr %this.addr, align 8
  call void @"_ZNSt8functionIFmRN7rocksdb9lru_cache13LRUCacheShardEEEC2IZNS1_8LRUCache15TEST_GetLRUSizeEvE3$_0vEEOT_"(ptr noundef nonnull align 8 dereferenceable(32) %ref.tmp, ptr noundef nonnull align 1 dereferenceable(1) %ref.tmp2) #15
  %call = invoke noundef i64 @_ZNK7rocksdb12ShardedCacheINS_9lru_cache13LRUCacheShardEE13SumOverShardsERKSt8functionIFmRS2_EE(ptr noundef nonnull align 8 dereferenceable(137) %this1, ptr noundef nonnull align 8 dereferenceable(32) %ref.tmp)
          to label %invoke.cont unwind label %lpad

invoke.cont:                                      ; preds = %entry
  call void @_ZNSt8functionIFmRN7rocksdb9lru_cache13LRUCacheShardEEED2Ev(ptr noundef nonnull align 8 dereferenceable(32) %ref.tmp) #15
  ret i64 %call

lpad:                                             ; preds = %entry
  %0 = landingpad { ptr, i32 }
          cleanup
  %1 = extractvalue { ptr, i32 } %0, 0
  store ptr %1, ptr %exn.slot, align 8
  %2 = extractvalue { ptr, i32 } %0, 1
  store i32 %2, ptr %ehselector.slot, align 4
  call void @_ZNSt8functionIFmRN7rocksdb9lru_cache13LRUCacheShardEEED2Ev(ptr noundef nonnull align 8 dereferenceable(32) %ref.tmp) #15
  br label %eh.resume

eh.resume:                                        ; preds = %lpad
  %exn = load ptr, ptr %exn.slot, align 8
  %sel = load i32, ptr %ehselector.slot, align 4
  %lpad.val = insertvalue { ptr, i32 } poison, ptr %exn, 0
  %lpad.val3 = insertvalue { ptr, i32 } %lpad.val, i32 %sel, 1
  resume { ptr, i32 } %lpad.val3
}