; Function Attrs: mustprogress uwtable
define noundef i64 @_ZN7rocksdb9lru_cache8LRUCache15TEST_GetLRUSizeEv(ptr noundef nonnull align 8 dereferenceable(144) %this) local_unnamed_addr #0 align 2 personality ptr @__gxx_personality_v0 {
entry:
  %ref.tmp = alloca %"class.std::function.23", align 8
  %_M_manager.i.i = getelementptr inbounds i8, ptr %ref.tmp, i64 16
  %_M_invoker.i = getelementptr inbounds i8, ptr %ref.tmp, i64 24
  call void @llvm.memset.p0.i64(ptr noundef nonnull align 8 dereferenceable(16) %ref.tmp, i8 0, i64 16, i1 false)
  store ptr @"_ZNSt17_Function_handlerIFmRN7rocksdb9lru_cache13LRUCacheShardEEZNS1_8LRUCache15TEST_GetLRUSizeEvE3$_0E9_M_invokeERKSt9_Any_dataS3_", ptr %_M_invoker.i, align 8
  store ptr @"_ZNSt17_Function_handlerIFmRN7rocksdb9lru_cache13LRUCacheShardEEZNS1_8LRUCache15TEST_GetLRUSizeEvE3$_0E10_M_managerERSt9_Any_dataRKS8_St18_Manager_operation", ptr %_M_manager.i.i, align 8
  %call.i1 = invoke noundef i32 @_ZNK7rocksdb16ShardedCacheBase12GetNumShardsEv(ptr noundef nonnull align 8 dereferenceable(128) %this)
          to label %call.i.noexc unwind label %lpad.loopexit.split-lp

call.i.noexc:                                     ; preds = %entry
  %cmp5.not.i = icmp eq i32 %call.i1, 0
  br i1 %cmp5.not.i, label %if.then.i.i4, label %for.body.lr.ph.i

for.body.lr.ph.i:                                 ; preds = %call.i.noexc
  %shards_.i = getelementptr inbounds i8, ptr %this, i64 128
  %wide.trip.count.i = zext i32 %call.i1 to i64
  br label %for.body.i

for.body.i:                                       ; preds = %call2.i.i.noexc, %for.body.lr.ph.i
  %indvars.iv.i = phi i64 [ 0, %for.body.lr.ph.i ], [ %indvars.iv.next.i, %call2.i.i.noexc ]
  %result.06.i = phi i64 [ 0, %for.body.lr.ph.i ], [ %add.i, %call2.i.i.noexc ]
  %0 = load ptr, ptr %_M_manager.i.i, align 8
  %tobool.not.i.i.i = icmp eq ptr %0, null
  br i1 %tobool.not.i.i.i, label %if.then.i.i, label %_ZNKSt8functionIFmRN7rocksdb9lru_cache13LRUCacheShardEEEclES3_.exit.i

if.then.i.i:                                      ; preds = %for.body.i
  invoke void @_ZSt25__throw_bad_function_callv() #28
          to label %.noexc unwind label %lpad.loopexit.split-lp

.noexc:                                           ; preds = %if.then.i.i
  unreachable

_ZNKSt8functionIFmRN7rocksdb9lru_cache13LRUCacheShardEEEclES3_.exit.i: ; preds = %for.body.i
  %1 = load ptr, ptr %shards_.i, align 8
  %arrayidx.i = getelementptr inbounds %"class.rocksdb::lru_cache::LRUCacheShard", ptr %1, i64 %indvars.iv.i
  %2 = load ptr, ptr %_M_invoker.i, align 8
  %call2.i.i2 = invoke noundef i64 %2(ptr noundef nonnull align 8 dereferenceable(16) %ref.tmp, ptr noundef nonnull align 64 dereferenceable(256) %arrayidx.i)
          to label %call2.i.i.noexc unwind label %lpad.loopexit

call2.i.i.noexc:                                  ; preds = %_ZNKSt8functionIFmRN7rocksdb9lru_cache13LRUCacheShardEEEclES3_.exit.i
  %add.i = add i64 %call2.i.i2, %result.06.i
  %indvars.iv.next.i = add nuw nsw i64 %indvars.iv.i, 1
  %exitcond.not.i = icmp eq i64 %indvars.iv.next.i, %wide.trip.count.i
  br i1 %exitcond.not.i, label %invoke.cont, label %for.body.i, !llvm.loop !35

invoke.cont:                                      ; preds = %call2.i.i.noexc
  %.pre = load ptr, ptr %_M_manager.i.i, align 8
  %tobool.not.i.i = icmp eq ptr %.pre, null
  br i1 %tobool.not.i.i, label %_ZNSt8functionIFmRN7rocksdb9lru_cache13LRUCacheShardEEED2Ev.exit, label %if.then.i.i4

if.then.i.i4:                                     ; preds = %call.i.noexc, %invoke.cont
  %result.0.lcssa.i15 = phi i64 [ %add.i, %invoke.cont ], [ 0, %call.i.noexc ]
  %3 = phi ptr [ %.pre, %invoke.cont ], [ @"_ZNSt17_Function_handlerIFmRN7rocksdb9lru_cache13LRUCacheShardEEZNS1_8LRUCache15TEST_GetLRUSizeEvE3$_0E10_M_managerERSt9_Any_dataRKS8_St18_Manager_operation", %call.i.noexc ]
  %call.i.i = invoke noundef zeroext i1 %3(ptr noundef nonnull align 8 dereferenceable(16) %ref.tmp, ptr noundef nonnull align 8 dereferenceable(16) %ref.tmp, i32 noundef 3)
          to label %_ZNSt8functionIFmRN7rocksdb9lru_cache13LRUCacheShardEEED2Ev.exit unwind label %terminate.lpad.i.i

terminate.lpad.i.i:                               ; preds = %if.then.i.i4
  %4 = landingpad { ptr, i32 }
          catch ptr null
  %5 = extractvalue { ptr, i32 } %4, 0
  call void @__clang_call_terminate(ptr %5) #27
  unreachable

_ZNSt8functionIFmRN7rocksdb9lru_cache13LRUCacheShardEEED2Ev.exit: ; preds = %invoke.cont, %if.then.i.i4
  %result.0.lcssa.i16 = phi i64 [ %add.i, %invoke.cont ], [ %result.0.lcssa.i15, %if.then.i.i4 ]
  ret i64 %result.0.lcssa.i16

lpad.loopexit:                                    ; preds = %_ZNKSt8functionIFmRN7rocksdb9lru_cache13LRUCacheShardEEEclES3_.exit.i
  %lpad.loopexit11 = landingpad { ptr, i32 }
          cleanup
  br label %lpad

lpad.loopexit.split-lp:                           ; preds = %entry, %if.then.i.i
  %lpad.loopexit.split-lp12 = landingpad { ptr, i32 }
          cleanup
  br label %lpad

lpad:                                             ; preds = %lpad.loopexit.split-lp, %lpad.loopexit
  %lpad.phi = phi { ptr, i32 } [ %lpad.loopexit11, %lpad.loopexit ], [ %lpad.loopexit.split-lp12, %lpad.loopexit.split-lp ]
  %6 = load ptr, ptr %_M_manager.i.i, align 8
  %tobool.not.i.i6 = icmp eq ptr %6, null
  br i1 %tobool.not.i.i6, label %_ZNSt8functionIFmRN7rocksdb9lru_cache13LRUCacheShardEEED2Ev.exit10, label %if.then.i.i7

if.then.i.i7:                                     ; preds = %lpad
  %call.i.i8 = invoke noundef zeroext i1 %6(ptr noundef nonnull align 8 dereferenceable(16) %ref.tmp, ptr noundef nonnull align 8 dereferenceable(16) %ref.tmp, i32 noundef 3)
          to label %_ZNSt8functionIFmRN7rocksdb9lru_cache13LRUCacheShardEEED2Ev.exit10 unwind label %terminate.lpad.i.i9

terminate.lpad.i.i9:                              ; preds = %if.then.i.i7
  %7 = landingpad { ptr, i32 }
          catch ptr null
  %8 = extractvalue { ptr, i32 } %7, 0
  call void @__clang_call_terminate(ptr %8) #27
  unreachable

_ZNSt8functionIFmRN7rocksdb9lru_cache13LRUCacheShardEEED2Ev.exit10: ; preds = %lpad, %if.then.i.i7
  resume { ptr, i32 } %lpad.phi
}